target datalayout = "e-m:e-p270:32:32-p271:32:32-p272:64:64-i64:64-i128:128-f80:128-n8:16:32:64-S128"
target triple = "x86_64-pc-linux-gnu"

%class.TypeOrigin = type { i32, i32, ptr, %class.VerificationType }
%class.VerificationType = type { %union.anon.3 }
%union.anon.3 = type { ptr }
%class.StackMapFrame = type { i32, i32, i32, i32, i16, i16, i8, ptr, ptr, ptr }

; Function Attrs: mustprogress nounwind uwtable
define linkonce_odr hidden void @_ZN13StackMapFrame7restoreEv(ptr noundef nonnull align 8 dereferenceable(48) %0) #1 comdat align 2 {
  %2 = alloca ptr, align 8
  store ptr %0, ptr %2, align 8
  %3 = load ptr, ptr %2, align 8
  %4 = getelementptr inbounds %class.StackMapFrame, ptr %3, i32 0, i32 3
  %5 = load i32, ptr %4, align 4
  %6 = icmp ne i32 %5, -1
  br i1 %6, label %7, label %11

7:                                                ; preds = %1
  %8 = getelementptr inbounds %class.StackMapFrame, ptr %3, i32 0, i32 3
  %9 = load i32, ptr %8, align 4
  %10 = getelementptr inbounds %class.StackMapFrame, ptr %3, i32 0, i32 2
  store i32 %9, ptr %10, align 8
  br label %11

11:                                               ; preds = %7, %1
  ret void
}

; Function Attrs: mustprogress nounwind uwtable
define hidden void @_ZN10TypeOrigin11reset_frameEv(ptr noundef nonnull align 8 dereferenceable(24) %0) #1 align 2 {
  %2 = alloca ptr, align 8
  store ptr %0, ptr %2, align 8
  %3 = load ptr, ptr %2, align 8
  %4 = getelementptr inbounds %class.TypeOrigin, ptr %3, i32 0, i32 2
  %5 = load ptr, ptr %4, align 8
  %6 = icmp ne ptr %5, null
  br i1 %6, label %7, label %10

7:                                                ; preds = %1
  %8 = getelementptr inbounds %class.TypeOrigin, ptr %3, i32 0, i32 2
  %9 = load ptr, ptr %8, align 8
  call void @_ZN13StackMapFrame7restoreEv(ptr noundef nonnull align 8 dereferenceable(48) %9)
  br label %10

10:                                               ; preds = %7, %1
  ret void
}