; Function Attrs: mustprogress nofree norecurse nosync nounwind willreturn memory(readwrite, inaccessiblemem: none) uwtable
define hidden void @_ZN10TypeOrigin11reset_frameEv(ptr nocapture noundef nonnull readonly align 8 dereferenceable(24) %0) local_unnamed_addr #7 align 2 {
  %2 = getelementptr inbounds i8, ptr %0, i64 8
  %3 = load ptr, ptr %2, align 8
  %.not = icmp eq ptr %3, null
  br i1 %.not, label %_ZN13StackMapFrame7restoreEv.exit, label %4

4:                                                ; preds = %1
  %5 = getelementptr inbounds i8, ptr %3, i64 12
  %6 = load i32, ptr %5, align 4
  %.not.i = icmp eq i32 %6, -1
  br i1 %.not.i, label %_ZN13StackMapFrame7restoreEv.exit, label %7

7:                                                ; preds = %4
  %8 = getelementptr inbounds i8, ptr %3, i64 8
  store i32 %6, ptr %8, align 8
  br label %_ZN13StackMapFrame7restoreEv.exit

_ZN13StackMapFrame7restoreEv.exit:                ; preds = %7, %4, %1
  ret void
}